; Function Attrs: mustprogress nofree norecurse nosync nounwind willreturn memory(argmem: read) uwtable
define noundef zeroext i1 @_ZN6evmone16is_eof_containerESt17basic_string_viewIhN4evmc11byte_traitsIhEEE(i64 %0, ptr readonly captures(none) %1) local_unnamed_addr #0 {
  %.not.i = icmp ult i64 %0, 2
  br i1 %.not.i, label %_ZNKSt17basic_string_viewIhN4evmc11byte_traitsIhEEE11starts_withES3_.exit, label %.lr.ph.i.i.i.i

.lr.ph.i.i.i.i:                                   ; preds = %2, %5
  %.not.i.i.i.i = phi i1 [ true, %5 ], [ false, %2 ]
  %.0813.i.i.i.i = phi ptr [ %7, %5 ], [ @_ZN6evmoneL15EOF_MAGIC_BYTESE, %2 ]
  %.0912.i.i.i.i = phi ptr [ %6, %5 ], [ %1, %2 ]
  %3 = load i8, ptr %.0912.i.i.i.i, align 1, !tbaa !14
  %4 = load i8, ptr %.0813.i.i.i.i, align 1, !tbaa !14
  %or.cond.not.i.i = icmp eq i8 %4, %3
  br i1 %or.cond.not.i.i, label %5, label %_ZNKSt17basic_string_viewIhN4evmc11byte_traitsIhEEE11starts_withES3_.exit

5:                                                ; preds = %.lr.ph.i.i.i.i
  %6 = getelementptr inbounds nuw i8, ptr %.0912.i.i.i.i, i64 1
  %7 = getelementptr inbounds nuw i8, ptr %.0813.i.i.i.i, i64 1
  br i1 %.not.i.i.i.i, label %_ZNKSt17basic_string_viewIhN4evmc11byte_traitsIhEEE11starts_withES3_.exit, label %.lr.ph.i.i.i.i, !llvm.loop !15

_ZNKSt17basic_string_viewIhN4evmc11byte_traitsIhEEE11starts_withES3_.exit: ; preds = %.lr.ph.i.i.i.i, %5, %2
  %8 = phi i1 [ false, %2 ], [ %or.cond.not.i.i, %5 ], [ %or.cond.not.i.i, %.lr.ph.i.i.i.i ]
  ret i1 %8
}